; Function Attrs: nounwind uwtable
define ptr @l_npowRec___rarg(ptr noundef %0, ptr noundef %1, ptr noundef %2, ptr noundef %3) local_unnamed_addr #0 {
  %5 = ptrtoint ptr %2 to i64
  %6 = and i64 %5, 1
  %.not = icmp eq i64 %6, 0
  br i1 %.not, label %lean_nat_eq.exit.thread, label %lean_nat_eq.exit, !prof !15

lean_nat_eq.exit:                                 ; preds = %4
  %.not37 = icmp eq ptr %2, inttoptr (i64 1 to ptr)
  br i1 %.not37, label %41, label %8

lean_nat_eq.exit.thread:                          ; preds = %4
  %7 = tail call zeroext i1 @lean_nat_big_eq(ptr noundef %2, ptr noundef nonnull inttoptr (i64 1 to ptr)) #3
  br i1 %7, label %41, label %.critedge.i

8:                                                ; preds = %lean_nat_eq.exit
  %9 = icmp ult ptr %2, inttoptr (i64 2 to ptr)
  br i1 %9, label %lean_nat_sub.exit, label %10

10:                                               ; preds = %8
  %11 = add i64 %5, -2
  %12 = inttoptr i64 %11 to ptr
  br label %lean_nat_sub.exit

.critedge.i:                                      ; preds = %lean_nat_eq.exit.thread
  %13 = tail call ptr @lean_nat_big_sub(ptr noundef %2, ptr noundef nonnull inttoptr (i64 3 to ptr)) #3
  br label %lean_nat_sub.exit

lean_nat_sub.exit:                                ; preds = %8, %10, %.critedge.i
  %.1.i = phi ptr [ %13, %.critedge.i ], [ %12, %10 ], [ inttoptr (i64 1 to ptr), %8 ]
  %14 = ptrtoint ptr %3 to i64
  %15 = and i64 %14, 1
  %.not41 = icmp eq i64 %15, 0
  br i1 %.not41, label %16, label %lean_inc.exit21

16:                                               ; preds = %lean_nat_sub.exit
  %.val.i = load i32, ptr %3, align 4, !tbaa !4
  %17 = icmp sgt i32 %.val.i, 0
  br i1 %17, label %18, label %20, !prof !9

18:                                               ; preds = %16
  %19 = add nuw i32 %.val.i, 1
  store i32 %19, ptr %3, align 4, !tbaa !4
  br label %lean_inc.exit21

20:                                               ; preds = %16
  %.not.i29 = icmp eq i32 %.val.i, 0
  br i1 %.not.i29, label %lean_inc.exit21, label %21

21:                                               ; preds = %20
  tail call void @lean_inc_ref_cold(ptr noundef nonnull %3) #3
  br label %lean_inc.exit21

lean_inc.exit21:                                  ; preds = %21, %20, %18, %lean_nat_sub.exit
  %22 = ptrtoint ptr %1 to i64
  %23 = and i64 %22, 1
  %.not42 = icmp eq i64 %23, 0
  br i1 %.not42, label %24, label %lean_inc.exit20

24:                                               ; preds = %lean_inc.exit21
  %.val.i30 = load i32, ptr %1, align 4, !tbaa !4
  %25 = icmp sgt i32 %.val.i30, 0
  br i1 %25, label %26, label %28, !prof !9

26:                                               ; preds = %24
  %27 = add nuw i32 %.val.i30, 1
  store i32 %27, ptr %1, align 4, !tbaa !4
  br label %lean_inc.exit20

28:                                               ; preds = %24
  %.not.i31 = icmp eq i32 %.val.i30, 0
  br i1 %.not.i31, label %lean_inc.exit20, label %29

29:                                               ; preds = %28
  tail call void @lean_inc_ref_cold(ptr noundef nonnull %1) #3
  br label %lean_inc.exit20

lean_inc.exit20:                                  ; preds = %29, %28, %26, %lean_inc.exit21
  %30 = tail call ptr @l_npowRec___rarg(ptr noundef %0, ptr noundef %1, ptr noundef %.1.i, ptr noundef %3)
  %31 = ptrtoint ptr %.1.i to i64
  %32 = and i64 %31, 1
  %.not43 = icmp eq i64 %32, 0
  br i1 %.not43, label %33, label %lean_dec.exit23

33:                                               ; preds = %lean_inc.exit20
  %34 = load i32, ptr %.1.i, align 4, !tbaa !4
  %35 = icmp sgt i32 %34, 1
  br i1 %35, label %36, label %38, !prof !9

36:                                               ; preds = %33
  %37 = add nsw i32 %34, -1
  store i32 %37, ptr %.1.i, align 4, !tbaa !4
  br label %lean_dec.exit23

38:                                               ; preds = %33
  %.not.i = icmp eq i32 %34, 0
  br i1 %.not.i, label %lean_dec.exit23, label %39

39:                                               ; preds = %38
  tail call void @lean_dec_ref_cold(ptr noundef nonnull %.1.i) #3
  br label %lean_dec.exit23

lean_dec.exit23:                                  ; preds = %39, %38, %36, %lean_inc.exit20
  %40 = tail call ptr @lean_apply_2(ptr noundef %1, ptr noundef %30, ptr noundef %3) #3
  br label %lean_inc.exit

41:                                               ; preds = %lean_nat_eq.exit.thread, %lean_nat_eq.exit
  %42 = ptrtoint ptr %3 to i64
  %43 = and i64 %42, 1
  %.not38 = icmp eq i64 %43, 0
  br i1 %.not38, label %44, label %lean_dec.exit22

44:                                               ; preds = %41
  %45 = load i32, ptr %3, align 4, !tbaa !4
  %46 = icmp sgt i32 %45, 1
  br i1 %46, label %47, label %49, !prof !9

47:                                               ; preds = %44
  %48 = add nsw i32 %45, -1
  store i32 %48, ptr %3, align 4, !tbaa !4
  br label %lean_dec.exit22

49:                                               ; preds = %44
  %.not.i24 = icmp eq i32 %45, 0
  br i1 %.not.i24, label %lean_dec.exit22, label %50

50:                                               ; preds = %49
  tail call void @lean_dec_ref_cold(ptr noundef nonnull %3) #3
  br label %lean_dec.exit22

lean_dec.exit22:                                  ; preds = %50, %49, %47, %41
  %51 = ptrtoint ptr %1 to i64
  %52 = and i64 %51, 1
  %.not39 = icmp eq i64 %52, 0
  br i1 %.not39, label %53, label %lean_dec.exit

53:                                               ; preds = %lean_dec.exit22
  %54 = load i32, ptr %1, align 4, !tbaa !4
  %55 = icmp sgt i32 %54, 1
  br i1 %55, label %56, label %58, !prof !9

56:                                               ; preds = %53
  %57 = add nsw i32 %54, -1
  store i32 %57, ptr %1, align 4, !tbaa !4
  br label %lean_dec.exit

58:                                               ; preds = %53
  %.not.i26 = icmp eq i32 %54, 0
  br i1 %.not.i26, label %lean_dec.exit, label %59

59:                                               ; preds = %58
  tail call void @lean_dec_ref_cold(ptr noundef nonnull %1) #3
  br label %lean_dec.exit

lean_dec.exit:                                    ; preds = %59, %58, %56, %lean_dec.exit22
  %60 = ptrtoint ptr %0 to i64
  %61 = and i64 %60, 1
  %.not40 = icmp eq i64 %61, 0
  br i1 %.not40, label %62, label %lean_inc.exit

62:                                               ; preds = %lean_dec.exit
  %.val.i33 = load i32, ptr %0, align 4, !tbaa !4
  %63 = icmp sgt i32 %.val.i33, 0
  br i1 %63, label %64, label %66, !prof !9

64:                                               ; preds = %62
  %65 = add nuw i32 %.val.i33, 1
  store i32 %65, ptr %0, align 4, !tbaa !4
  br label %lean_inc.exit

66:                                               ; preds = %62
  %.not.i34 = icmp eq i32 %.val.i33, 0
  br i1 %.not.i34, label %lean_inc.exit, label %67

67:                                               ; preds = %66
  tail call void @lean_inc_ref_cold(ptr noundef nonnull %0) #3
  br label %lean_inc.exit

lean_inc.exit:                                    ; preds = %lean_dec.exit, %64, %66, %67, %lean_dec.exit23
  %.0 = phi ptr [ %40, %lean_dec.exit23 ], [ %0, %67 ], [ %0, %66 ], [ %0, %64 ], [ %0, %lean_dec.exit ]
  ret ptr %.0
}